; Function Attrs: mustprogress nofree nounwind willreturn memory(read) uwtable
define internal fastcc noundef nonnull align 8 dereferenceable(24) ptr @_ZN7jsonnet8internalL11open_fodderEPNS0_3ASTE(ptr noundef readonly %0) unnamed_addr #7 {
  %2 = tail call fastcc noundef ptr @_ZN7jsonnet8internalL14left_recursiveEPNS0_3ASTE(ptr noundef readonly %0)
  %.not7.i = icmp eq ptr %2, null
  br i1 %.not7.i, label %_ZN7jsonnet8internalL19left_recursive_deepEPNS0_3ASTE.exit, label %.lr.ph.i

.lr.ph.i:                                         ; preds = %1, %.lr.ph.i
  %.08.i = phi ptr [ %3, %.lr.ph.i ], [ %2, %1 ]
  %3 = tail call fastcc noundef ptr @_ZN7jsonnet8internalL14left_recursiveEPNS0_3ASTE(ptr noundef nonnull %.08.i)
  %.not.i = icmp eq ptr %3, null
  br i1 %.not.i, label %_ZN7jsonnet8internalL19left_recursive_deepEPNS0_3ASTE.exit, label %.lr.ph.i, !llvm.loop !52

_ZN7jsonnet8internalL19left_recursive_deepEPNS0_3ASTE.exit: ; preds = %.lr.ph.i, %1
  %.06.lcssa.i = phi ptr [ %0, %1 ], [ %.08.i, %.lr.ph.i ]
  %4 = getelementptr inbounds nuw i8, ptr %.06.lcssa.i, i64 80
  ret ptr %4
}